target datalayout = "e-m:e-p270:32:32-p271:32:32-p272:64:64-i64:64-i128:128-f80:128-n8:16:32:64-S128"
target triple = "x86_64-pc-linux-gnu"

%"class.LIEF::PE::LoadConfigurationV9" = type { %"class.LIEF::PE::LoadConfigurationV8", i64, i64 }
%"class.LIEF::PE::LoadConfigurationV8" = type { %"class.LIEF::PE::LoadConfigurationV7", i64 }
%"class.LIEF::PE::LoadConfigurationV7" = type { %"class.LIEF::PE::LoadConfigurationV6.base", i32, i64 }
%"class.LIEF::PE::LoadConfigurationV6.base" = type <{ %"class.LIEF::PE::LoadConfigurationV5", i64, i32 }>
%"class.LIEF::PE::LoadConfigurationV5" = type { %"class.LIEF::PE::LoadConfigurationV4", i64, i64, i32, i16, i16 }
%"class.LIEF::PE::LoadConfigurationV4" = type { %"class.LIEF::PE::LoadConfigurationV3", i64, i64 }
%"class.LIEF::PE::LoadConfigurationV3" = type { %"class.LIEF::PE::LoadConfigurationV2", i64, i64, i64, i64 }
%"class.LIEF::PE::LoadConfigurationV2" = type { %"class.LIEF::PE::LoadConfigurationV1.base", [4 x i8], %"class.LIEF::PE::CodeIntegrity" }
%"class.LIEF::PE::LoadConfigurationV1.base" = type <{ %"class.LIEF::PE::LoadConfigurationV0", i64, i64, i64, i64, i32 }>
%"class.LIEF::PE::LoadConfigurationV0" = type { %"class.LIEF::PE::LoadConfiguration", i64, i64 }
%"class.LIEF::PE::LoadConfiguration" = type { %"class.LIEF::Object", i32, i32, i16, i16, i32, i32, i32, i64, i64, i64, i64, i64, i64, i32, i16, i16, i64, i64 }
%"class.LIEF::Object" = type { ptr }
%"class.LIEF::PE::CodeIntegrity" = type <{ %"class.LIEF::Object", i16, i16, i32, i32, [4 x i8] }>
%"class.fmt::v9::basic_string_view" = type { ptr, i64 }
%"class.fmt::v9::basic_format_string" = type { %"class.fmt::v9::basic_string_view" }
%"class.fmt::v9::basic_format_args" = type { i64, %union.anon.15 }
%union.anon.15 = type { ptr }
%"class.fmt::v9::format_arg_store" = type { %"struct.fmt::v9::detail::arg_data" }
%"struct.fmt::v9::detail::arg_data" = type { [1 x %"class.fmt::v9::detail::value"] }
%"class.fmt::v9::detail::value" = type { %union.anon.16 }
%union.anon.16 = type { i128 }
%"class.std::__cxx11::basic_string" = type { %"struct.std::__cxx11::basic_string<char>::_Alloc_hider", i64, %union.anon.14 }
%"struct.std::__cxx11::basic_string<char>::_Alloc_hider" = type { ptr }
%union.anon.14 = type { i64, [8 x i8] }
%"struct.fmt::v9::detail::arg_mapper" = type { i8 }

@.str = private unnamed_addr constant [22 x i8] c"LoadConfigurationV9:\0A\00", align 1
@.str.1 = private unnamed_addr constant [40 x i8] c"  GuardEH Continuation Table: 0x{:08x}\0A\00", align 1
@.str.2 = private unnamed_addr constant [34 x i8] c"  GuardEH Continuation Count: {}\0A\00", align 1

; Function Attrs: mustprogress nounwind uwtable
define linkonce_odr hidden noundef i64 @_ZNK4LIEF2PE19LoadConfigurationV927guard_eh_continuation_countEv(ptr noundef nonnull align 8 dereferenceable(304) %0) #1 comdat align 2 {
  %2 = alloca ptr, align 8
  store ptr %0, ptr %2, align 8
  %3 = load ptr, ptr %2, align 8
  %4 = getelementptr inbounds %"class.LIEF::PE::LoadConfigurationV9", ptr %3, i32 0, i32 2
  %5 = load i64, ptr %4, align 8
  ret i64 %5
}

; Function Attrs: mustprogress uwtable
define linkonce_odr hidden { i64, i64 } @_ZN3fmt2v916make_format_argsINS0_20basic_format_contextINS0_8appenderEcEEJRmEEENS0_16format_arg_storeIT_JDpNSt9remove_cvINSt16remove_referenceIT0_E4typeEE4typeEEEEDpOSA_(ptr noundef nonnull align 8 dereferenceable(8) %0) #3 comdat {
  %2 = alloca ptr, align 8
  %3 = alloca i64, align 8
  %4 = alloca ptr, align 8
  %5 = alloca i64, align 8
  %6 = alloca %"class.fmt::v9::detail::value", align 16
  %7 = alloca ptr, align 8
  %8 = alloca ptr, align 8
  %9 = alloca i64, align 8
  %10 = alloca %"struct.fmt::v9::detail::arg_mapper", align 1
  %11 = alloca i8, align 1
  %12 = alloca i8, align 1
  %13 = alloca i8, align 1
  %14 = alloca i8, align 1
  %15 = alloca ptr, align 8
  %16 = alloca ptr, align 8
  %17 = alloca i32, align 4
  %18 = alloca i32, align 4
  %19 = alloca ptr, align 8
  %20 = alloca ptr, align 8
  %21 = alloca ptr, align 8
  %22 = alloca %"class.fmt::v9::detail::value", align 16
  %23 = alloca ptr, align 8
  %24 = alloca ptr, align 8
  %25 = alloca ptr, align 8
  %26 = alloca %"class.fmt::v9::detail::value", align 16
  %27 = alloca %"class.fmt::v9::format_arg_store", align 16
  %28 = alloca ptr, align 8
  store ptr %0, ptr %28, align 8
  %29 = load ptr, ptr %28, align 8
  store ptr %27, ptr %24, align 8
  store ptr %29, ptr %25, align 8
  %30 = load ptr, ptr %24, align 8
  %31 = load ptr, ptr %25, align 8
  store ptr %31, ptr %23, align 8
  %32 = load ptr, ptr %23, align 8
  store ptr %32, ptr %7, align 8
  %33 = load ptr, ptr %7, align 8
  %34 = load i64, ptr %33, align 8
  store ptr %10, ptr %4, align 8
  store i64 %34, ptr %5, align 8
  %35 = load i64, ptr %5, align 8
  store i64 %35, ptr %9, align 8
  store ptr %9, ptr %8, align 8
  store i8 1, ptr %11, align 1
  store i8 1, ptr %12, align 1
  store i8 1, ptr %13, align 1
  store i8 1, ptr %14, align 1
  %36 = load ptr, ptr %8, align 8
  %37 = load i64, ptr %36, align 8
  store ptr %6, ptr %2, align 8
  store i64 %37, ptr %3, align 8
  %38 = load ptr, ptr %2, align 8
  %39 = load i64, ptr %3, align 8
  store i64 %39, ptr %38, align 16
  %40 = load { i64, i64 }, ptr %6, align 16
  %41 = extractvalue { i64, i64 } %40, 0
  store i64 %41, ptr %22, align 16
  %42 = getelementptr inbounds { i64, i64 }, ptr %22, i32 0, i32 1
  %43 = extractvalue { i64, i64 } %40, 1
  store i64 %43, ptr %42, align 8
  %44 = load { i64, i64 }, ptr %22, align 16
  %45 = extractvalue { i64, i64 } %44, 0
  store i64 %45, ptr %26, align 16
  %46 = getelementptr inbounds { i64, i64 }, ptr %26, i32 0, i32 1
  %47 = extractvalue { i64, i64 } %44, 1
  store i64 %47, ptr %46, align 8
  store ptr %30, ptr %20, align 8
  store ptr %26, ptr %21, align 8
  %48 = load ptr, ptr %20, align 8
  %49 = load ptr, ptr %21, align 8
  call void @llvm.memcpy.p0.p0.i64(ptr align 16 %48, ptr align 16 %49, i64 16, i1 false)
  store ptr %30, ptr %15, align 8
  %50 = load ptr, ptr %25, align 8
  store ptr null, ptr %16, align 8
  store i32 0, ptr %17, align 4
  store i32 0, ptr %18, align 4
  store ptr %50, ptr %19, align 8
  %51 = getelementptr inbounds %"class.fmt::v9::format_arg_store", ptr %27, i32 0, i32 0
  %52 = getelementptr inbounds %"struct.fmt::v9::detail::arg_data", ptr %51, i32 0, i32 0
  %53 = load { i64, i64 }, ptr %52, align 16
  ret { i64, i64 } %53
}

; Function Attrs: mustprogress nounwind uwtable
define linkonce_odr hidden noundef i64 @_ZNK4LIEF2PE19LoadConfigurationV927guard_eh_continuation_tableEv(ptr noundef nonnull align 8 dereferenceable(304) %0) #1 comdat align 2 {
  %2 = alloca ptr, align 8
  store ptr %0, ptr %2, align 8
  %3 = load ptr, ptr %2, align 8
  %4 = getelementptr inbounds %"class.LIEF::PE::LoadConfigurationV9", ptr %3, i32 0, i32 1
  %5 = load i64, ptr %4, align 8
  ret i64 %5
}

; Function Attrs: mustprogress nounwind uwtable
define linkonce_odr hidden noundef i64 @_ZNSt11char_traitsIcE6lengthEPKc(ptr noundef %0) #1 comdat align 2 {
  %2 = alloca ptr, align 8
  store ptr %0, ptr %2, align 8
  %3 = load ptr, ptr %2, align 8
  %4 = call i64 @strlen(ptr noundef %3) #15
  ret i64 %4
}

; Function Attrs: mustprogress uwtable
define noundef nonnull align 8 dereferenceable(8) ptr @_ZNK4LIEF2PE19LoadConfigurationV95printERSo(ptr noundef nonnull align 8 dereferenceable(304) %0, ptr noundef nonnull align 8 dereferenceable(8) %1) unnamed_addr #3 align 2 personality ptr @__gxx_personality_v0 {
  %3 = alloca ptr, align 8
  %4 = alloca ptr, align 8
  %5 = alloca ptr, align 8
  %6 = alloca i64, align 8
  %7 = alloca ptr, align 8
  %8 = alloca ptr, align 8
  %9 = alloca i64, align 8
  %10 = alloca ptr, align 8
  %11 = alloca ptr, align 8
  %12 = alloca ptr, align 8
  %13 = alloca ptr, align 8
  %14 = alloca ptr, align 8
  %15 = alloca ptr, align 8
  %16 = alloca ptr, align 8
  %17 = alloca ptr, align 8
  %18 = alloca ptr, align 8
  %19 = alloca ptr, align 8
  %20 = alloca ptr, align 8
  %21 = alloca %"class.fmt::v9::basic_string_view", align 8
  %22 = alloca ptr, align 8
  %23 = alloca %"class.fmt::v9::basic_string_view", align 8
  %24 = alloca ptr, align 8
  %25 = alloca ptr, align 8
  %26 = alloca ptr, align 8
  %27 = alloca ptr, align 8
  %28 = alloca ptr, align 8
  %29 = alloca ptr, align 8
  %30 = alloca %"class.fmt::v9::basic_format_string", align 8
  %31 = alloca ptr, align 8
  %32 = alloca %"class.fmt::v9::basic_string_view", align 8
  %33 = alloca %"class.fmt::v9::basic_format_args", align 8
  %34 = alloca %"class.fmt::v9::format_arg_store", align 16
  %35 = alloca ptr, align 8
  %36 = alloca %"class.fmt::v9::basic_format_string", align 8
  %37 = alloca ptr, align 8
  %38 = alloca %"class.fmt::v9::basic_string_view", align 8
  %39 = alloca %"class.fmt::v9::basic_format_args", align 8
  %40 = alloca %"class.fmt::v9::format_arg_store", align 16
  %41 = alloca ptr, align 8
  %42 = alloca ptr, align 8
  %43 = alloca %"class.std::__cxx11::basic_string", align 8
  %44 = alloca %"class.fmt::v9::basic_format_string", align 8
  %45 = alloca i64, align 8
  %46 = alloca ptr, align 8
  %47 = alloca i32, align 4
  %48 = alloca %"class.std::__cxx11::basic_string", align 8
  %49 = alloca %"class.fmt::v9::basic_format_string", align 8
  %50 = alloca i64, align 8
  store ptr %0, ptr %41, align 8
  store ptr %1, ptr %42, align 8
  %51 = load ptr, ptr %41, align 8
  %52 = load ptr, ptr %42, align 8
  %53 = call noundef nonnull align 8 dereferenceable(8) ptr @_ZNK4LIEF2PE19LoadConfigurationV85printERSo(ptr noundef nonnull align 8 dereferenceable(288) %51, ptr noundef nonnull align 8 dereferenceable(8) %52)
  %54 = load ptr, ptr %42, align 8
  %55 = call noundef nonnull align 8 dereferenceable(8) ptr @_ZStlsISt11char_traitsIcEERSt13basic_ostreamIcT_ES5_PKc(ptr noundef nonnull align 8 dereferenceable(8) %54, ptr noundef @.str)
  store ptr %44, ptr %27, align 8
  store ptr @.str.1, ptr %28, align 8
  %56 = load ptr, ptr %27, align 8
  %57 = load ptr, ptr %28, align 8
  store ptr %56, ptr %13, align 8
  store ptr %57, ptr %14, align 8
  %58 = load ptr, ptr %13, align 8
  %59 = load ptr, ptr %14, align 8
  store ptr %59, ptr %58, align 8
  %60 = getelementptr inbounds %"class.fmt::v9::basic_string_view", ptr %58, i32 0, i32 1
  %61 = load ptr, ptr %14, align 8
  %62 = call noundef i64 @_ZNSt11char_traitsIcE6lengthEPKc(ptr noundef %61)
  store i64 %62, ptr %60, align 8
  %63 = load ptr, ptr %28, align 8
  store ptr %63, ptr %4, align 8
  %64 = call noundef i64 @_ZNK4LIEF2PE19LoadConfigurationV927guard_eh_continuation_tableEv(ptr noundef nonnull align 8 dereferenceable(304) %51)
  store i64 %64, ptr %45, align 8
  %65 = getelementptr inbounds { ptr, i64 }, ptr %44, i32 0, i32 0
  %66 = load ptr, ptr %65, align 8
  %67 = getelementptr inbounds { ptr, i64 }, ptr %44, i32 0, i32 1
  %68 = load i64, ptr %67, align 8
  call void @llvm.experimental.noalias.scope.decl(metadata !4)
  store ptr %43, ptr %29, align 8, !noalias !4
  store ptr %66, ptr %30, align 8, !noalias !4
  %69 = getelementptr inbounds { ptr, i64 }, ptr %30, i32 0, i32 1
  store i64 %68, ptr %69, align 8, !noalias !4
  store ptr %45, ptr %31, align 8, !noalias !4
  store ptr %30, ptr %24, align 8
  %70 = load ptr, ptr %24, align 8
  call void @llvm.memcpy.p0.p0.i64(ptr align 8 %23, ptr align 8 %70, i64 16, i1 false)
  %71 = load { ptr, i64 }, ptr %23, align 8
  %72 = extractvalue { ptr, i64 } %71, 0
  store ptr %72, ptr %32, align 8, !noalias !4
  %73 = getelementptr inbounds { ptr, i64 }, ptr %32, i32 0, i32 1
  %74 = extractvalue { ptr, i64 } %71, 1
  store i64 %74, ptr %73, align 8, !noalias !4
  %75 = load ptr, ptr %31, align 8, !noalias !4
  %76 = call { i64, i64 } @_ZN3fmt2v916make_format_argsINS0_20basic_format_contextINS0_8appenderEcEEJRmEEENS0_16format_arg_storeIT_JDpNSt9remove_cvINSt16remove_referenceIT0_E4typeEE4typeEEEEDpOSA_(ptr noundef nonnull align 8 dereferenceable(8) %75)
  %77 = extractvalue { i64, i64 } %76, 0
  store i64 %77, ptr %34, align 16, !noalias !4
  %78 = getelementptr inbounds { i64, i64 }, ptr %34, i32 0, i32 1
  %79 = extractvalue { i64, i64 } %76, 1
  store i64 %79, ptr %78, align 8, !noalias !4
  store ptr %33, ptr %19, align 8
  store ptr %34, ptr %20, align 8
  %80 = load ptr, ptr %19, align 8
  %81 = load ptr, ptr %20, align 8
  store ptr %81, ptr %11, align 8
  %82 = load ptr, ptr %11, align 8
  store ptr %80, ptr %5, align 8
  store i64 4, ptr %6, align 8
  store ptr %82, ptr %7, align 8
  %83 = load ptr, ptr %5, align 8
  %84 = load i64, ptr %6, align 8
  store i64 %84, ptr %83, align 8
  %85 = getelementptr inbounds %"class.fmt::v9::basic_format_args", ptr %83, i32 0, i32 1
  %86 = load ptr, ptr %7, align 8
  store ptr %86, ptr %85, align 8
  %87 = load ptr, ptr %32, align 8, !noalias !4
  %88 = getelementptr inbounds { ptr, i64 }, ptr %32, i32 0, i32 1
  %89 = load i64, ptr %88, align 8, !noalias !4
  %90 = load i64, ptr %33, align 8, !noalias !4
  %91 = getelementptr inbounds { i64, ptr }, ptr %33, i32 0, i32 1
  %92 = load ptr, ptr %91, align 8, !noalias !4
  call void @_ZN3fmt2v97vformatB5cxx11ENS0_17basic_string_viewIcEENS0_17basic_format_argsINS0_20basic_format_contextINS0_8appenderEcEEEE(ptr dead_on_unwind writable sret(%"class.std::__cxx11::basic_string") align 8 %43, ptr %87, i64 %89, i64 %90, ptr %92)
  %93 = invoke noundef nonnull align 8 dereferenceable(8) ptr @_ZStlsIcSt11char_traitsIcESaIcEERSt13basic_ostreamIT_T0_ES7_RKNSt7__cxx1112basic_stringIS4_S5_T1_EE(ptr noundef nonnull align 8 dereferenceable(8) %55, ptr noundef nonnull align 8 dereferenceable(32) %43)
          to label %94 unwind label %142

94:                                               ; preds = %2
  store ptr %49, ptr %25, align 8
  store ptr @.str.2, ptr %26, align 8
  %95 = load ptr, ptr %25, align 8
  %96 = load ptr, ptr %26, align 8
  store ptr %95, ptr %15, align 8
  store ptr %96, ptr %16, align 8
  %97 = load ptr, ptr %15, align 8
  %98 = load ptr, ptr %16, align 8
  store ptr %98, ptr %97, align 8
  %99 = getelementptr inbounds %"class.fmt::v9::basic_string_view", ptr %97, i32 0, i32 1
  %100 = load ptr, ptr %16, align 8
  %101 = call noundef i64 @_ZNSt11char_traitsIcE6lengthEPKc(ptr noundef %100)
  store i64 %101, ptr %99, align 8
  br label %102

102:                                              ; preds = %94
  %103 = load ptr, ptr %26, align 8
  store ptr %103, ptr %3, align 8
  br label %104

104:                                              ; preds = %102
  %105 = invoke noundef i64 @_ZNK4LIEF2PE19LoadConfigurationV927guard_eh_continuation_countEv(ptr noundef nonnull align 8 dereferenceable(304) %51)
          to label %106 unwind label %142

106:                                              ; preds = %104
  store i64 %105, ptr %50, align 8
  %107 = getelementptr inbounds { ptr, i64 }, ptr %49, i32 0, i32 0
  %108 = load ptr, ptr %107, align 8
  %109 = getelementptr inbounds { ptr, i64 }, ptr %49, i32 0, i32 1
  %110 = load i64, ptr %109, align 8
  call void @llvm.experimental.noalias.scope.decl(metadata !7)
  store ptr %48, ptr %35, align 8, !noalias !7
  store ptr %108, ptr %36, align 8, !noalias !7
  %111 = getelementptr inbounds { ptr, i64 }, ptr %36, i32 0, i32 1
  store i64 %110, ptr %111, align 8, !noalias !7
  store ptr %50, ptr %37, align 8, !noalias !7
  store ptr %36, ptr %22, align 8
  %112 = load ptr, ptr %22, align 8
  call void @llvm.memcpy.p0.p0.i64(ptr align 8 %21, ptr align 8 %112, i64 16, i1 false)
  %113 = load { ptr, i64 }, ptr %21, align 8
  %114 = extractvalue { ptr, i64 } %113, 0
  store ptr %114, ptr %38, align 8, !noalias !7
  %115 = getelementptr inbounds { ptr, i64 }, ptr %38, i32 0, i32 1
  %116 = extractvalue { ptr, i64 } %113, 1
  store i64 %116, ptr %115, align 8, !noalias !7
  %117 = load ptr, ptr %37, align 8, !noalias !7
  %118 = invoke { i64, i64 } @_ZN3fmt2v916make_format_argsINS0_20basic_format_contextINS0_8appenderEcEEJRmEEENS0_16format_arg_storeIT_JDpNSt9remove_cvINSt16remove_referenceIT0_E4typeEE4typeEEEEDpOSA_(ptr noundef nonnull align 8 dereferenceable(8) %117)
          to label %119 unwind label %142

119:                                              ; preds = %106
  %120 = extractvalue { i64, i64 } %118, 0
  store i64 %120, ptr %40, align 16, !noalias !7
  %121 = getelementptr inbounds { i64, i64 }, ptr %40, i32 0, i32 1
  %122 = extractvalue { i64, i64 } %118, 1
  store i64 %122, ptr %121, align 8, !noalias !7
  store ptr %39, ptr %17, align 8
  store ptr %40, ptr %18, align 8
  %123 = load ptr, ptr %17, align 8
  %124 = load ptr, ptr %18, align 8
  store ptr %124, ptr %12, align 8
  %125 = load ptr, ptr %12, align 8
  store ptr %123, ptr %8, align 8
  store i64 4, ptr %9, align 8
  store ptr %125, ptr %10, align 8
  %126 = load ptr, ptr %8, align 8
  %127 = load i64, ptr %9, align 8
  store i64 %127, ptr %126, align 8
  %128 = getelementptr inbounds %"class.fmt::v9::basic_format_args", ptr %126, i32 0, i32 1
  %129 = load ptr, ptr %10, align 8
  store ptr %129, ptr %128, align 8
  br label %130

130:                                              ; preds = %119
  %131 = load ptr, ptr %38, align 8, !noalias !7
  %132 = getelementptr inbounds { ptr, i64 }, ptr %38, i32 0, i32 1
  %133 = load i64, ptr %132, align 8, !noalias !7
  %134 = load i64, ptr %39, align 8, !noalias !7
  %135 = getelementptr inbounds { i64, ptr }, ptr %39, i32 0, i32 1
  %136 = load ptr, ptr %135, align 8, !noalias !7
  invoke void @_ZN3fmt2v97vformatB5cxx11ENS0_17basic_string_viewIcEENS0_17basic_format_argsINS0_20basic_format_contextINS0_8appenderEcEEEE(ptr dead_on_unwind writable sret(%"class.std::__cxx11::basic_string") align 8 %48, ptr %131, i64 %133, i64 %134, ptr %136)
          to label %137 unwind label %142

137:                                              ; preds = %130
  br label %138

138:                                              ; preds = %137
  %139 = invoke noundef nonnull align 8 dereferenceable(8) ptr @_ZStlsIcSt11char_traitsIcESaIcEERSt13basic_ostreamIT_T0_ES7_RKNSt7__cxx1112basic_stringIS4_S5_T1_EE(ptr noundef nonnull align 8 dereferenceable(8) %93, ptr noundef nonnull align 8 dereferenceable(32) %48)
          to label %140 unwind label %146

140:                                              ; preds = %138
  call void @_ZNSt7__cxx1112basic_stringIcSt11char_traitsIcESaIcEED1Ev(ptr noundef nonnull align 8 dereferenceable(32) %48) #15
  call void @_ZNSt7__cxx1112basic_stringIcSt11char_traitsIcESaIcEED1Ev(ptr noundef nonnull align 8 dereferenceable(32) %43) #15
  %141 = load ptr, ptr %42, align 8
  ret ptr %141

142:                                              ; preds = %130, %106, %104, %2
  %143 = landingpad { ptr, i32 }
          cleanup
  %144 = extractvalue { ptr, i32 } %143, 0
  store ptr %144, ptr %46, align 8
  %145 = extractvalue { ptr, i32 } %143, 1
  store i32 %145, ptr %47, align 4
  br label %150

146:                                              ; preds = %138
  %147 = landingpad { ptr, i32 }
          cleanup
  %148 = extractvalue { ptr, i32 } %147, 0
  store ptr %148, ptr %46, align 8
  %149 = extractvalue { ptr, i32 } %147, 1
  store i32 %149, ptr %47, align 4
  call void @_ZNSt7__cxx1112basic_stringIcSt11char_traitsIcESaIcEED1Ev(ptr noundef nonnull align 8 dereferenceable(32) %48) #15
  br label %150

150:                                              ; preds = %146, %142
  call void @_ZNSt7__cxx1112basic_stringIcSt11char_traitsIcESaIcEED1Ev(ptr noundef nonnull align 8 dereferenceable(32) %43) #15
  br label %151

151:                                              ; preds = %150
  %152 = load ptr, ptr %46, align 8
  %153 = load i32, ptr %47, align 4
  %154 = insertvalue { ptr, i32 } poison, ptr %152, 0
  %155 = insertvalue { ptr, i32 } %154, i32 %153, 1
  resume { ptr, i32 } %155
}